target datalayout = "e-m:e-p270:32:32-p271:32:32-p272:64:64-i64:64-i128:128-f80:128-n8:16:32:64-S128"
target triple = "x86_64-pc-linux-gnu"

%"class.icu_77::number::Scale" = type <{ i32, [4 x i8], ptr, i32, [4 x i8] }>

; Function Attrs: mustprogress nounwind uwtable
define void @_ZN6icu_776number5ScaleC2EOS1_(ptr noundef nonnull align 8 dereferenceable(20) %0, ptr noundef nonnull align 8 dereferenceable(20) %1) unnamed_addr #0 align 2 {
  %3 = alloca ptr, align 8
  %4 = alloca ptr, align 8
  store ptr %0, ptr %3, align 8, !tbaa !23
  store ptr %1, ptr %4, align 8, !tbaa !23
  %5 = load ptr, ptr %3, align 8
  %6 = getelementptr inbounds nuw %"class.icu_77::number::Scale", ptr %5, i32 0, i32 0
  %7 = load ptr, ptr %4, align 8, !tbaa !23
  %8 = getelementptr inbounds nuw %"class.icu_77::number::Scale", ptr %7, i32 0, i32 0
  %9 = load i32, ptr %8, align 8, !tbaa !27
  store i32 %9, ptr %6, align 8, !tbaa !27
  %10 = getelementptr inbounds nuw %"class.icu_77::number::Scale", ptr %5, i32 0, i32 2
  %11 = load ptr, ptr %4, align 8, !tbaa !23
  %12 = getelementptr inbounds nuw %"class.icu_77::number::Scale", ptr %11, i32 0, i32 2
  %13 = load ptr, ptr %12, align 8, !tbaa !29
  store ptr %13, ptr %10, align 8, !tbaa !29
  %14 = getelementptr inbounds nuw %"class.icu_77::number::Scale", ptr %5, i32 0, i32 3
  %15 = load ptr, ptr %4, align 8, !tbaa !23
  %16 = getelementptr inbounds nuw %"class.icu_77::number::Scale", ptr %15, i32 0, i32 3
  %17 = load i32, ptr %16, align 8, !tbaa !30
  store i32 %17, ptr %14, align 8, !tbaa !30
  %18 = load ptr, ptr %4, align 8, !tbaa !23
  %19 = getelementptr inbounds nuw %"class.icu_77::number::Scale", ptr %18, i32 0, i32 2
  store ptr null, ptr %19, align 8, !tbaa !29
  ret void
}