; Function Attrs: mustprogress nofree norecurse nosync nounwind willreturn memory(argmem: readwrite) uwtable
define void @_ZN6icu_776number5ScaleC2EOS1_(ptr noundef nonnull writeonly align 8 captures(none) dereferenceable(20) initializes((0, 4), (8, 20)) %0, ptr noundef nonnull align 8 captures(none) dereferenceable(20) %1) unnamed_addr #11 align 2 {
  %3 = load i32, ptr %1, align 8, !tbaa !15
  store i32 %3, ptr %0, align 8, !tbaa !15
  %4 = getelementptr inbounds nuw i8, ptr %0, i64 8
  %5 = getelementptr inbounds nuw i8, ptr %1, i64 8
  %6 = load ptr, ptr %5, align 8, !tbaa !18
  store ptr %6, ptr %4, align 8, !tbaa !18
  %7 = getelementptr inbounds nuw i8, ptr %0, i64 16
  %8 = getelementptr inbounds nuw i8, ptr %1, i64 16
  %9 = load i32, ptr %8, align 8, !tbaa !19
  store i32 %9, ptr %7, align 8, !tbaa !19
  store ptr null, ptr %5, align 8, !tbaa !18
  ret void
}